; Function Attrs: mustprogress uwtable
define noundef i64 @Java_org_coinor_Ipopt_CreateIpoptProblem(ptr noundef %0, ptr noundef %1, i32 noundef %2, i32 noundef %3, i32 noundef %4, i32 noundef %5, i32 noundef %6) local_unnamed_addr #3 personality ptr @__gxx_personality_v0 {
  %8 = tail call noalias noundef nonnull dereferenceable(8) ptr @_Znwm(i64 noundef 8) #16
  store ptr null, ptr %8, align 8, !tbaa !115
  %9 = tail call noalias noundef nonnull dereferenceable(232) ptr @_Znwm(i64 noundef 232) #16
  invoke void @_ZN6JipoptC1EP7JNIEnv_P8_jobjectiiiii(ptr noundef nonnull align 8 dereferenceable(232) %9, ptr noundef %0, ptr noundef %1, i32 noundef %2, i32 noundef %3, i32 noundef %4, i32 noundef %5, i32 noundef %6)
          to label %_ZN5Ipopt8SmartPtrI6JipoptEaSEPS1_.exit unwind label %14

_ZN5Ipopt8SmartPtrI6JipoptEaSEPS1_.exit:          ; preds = %7
  %10 = getelementptr inbounds nuw i8, ptr %9, i64 8
  %11 = load i32, ptr %10, align 8, !tbaa !3
  %12 = add nsw i32 %11, 1
  store i32 %12, ptr %10, align 8, !tbaa !3
  store ptr %9, ptr %8, align 8, !tbaa !115
  %13 = ptrtoint ptr %8 to i64
  ret i64 %13

14:                                               ; preds = %7
  %15 = landingpad { ptr, i32 }
          cleanup
  tail call void @_ZdlPvm(ptr noundef nonnull %9, i64 noundef 232) #18
  resume { ptr, i32 } %15
}